target datalayout = "e-m:e-p270:32:32-p271:32:32-p272:64:64-i64:64-i128:128-f80:128-n8:16:32:64-S128"
target triple = "x86_64-unknown-linux-gnu"

%struct.tm = type { i32, i32, i32, i32, i32, i32, i32, i32, i32, i64, ptr }

@evutil_date_rfc1123.DAYS = internal global [7 x ptr] [ptr @.str, ptr @.str.1, ptr @.str.2, ptr @.str.3, ptr @.str.4, ptr @.str.5, ptr @.str.6], align 16
@evutil_date_rfc1123.MONTHS = internal global [12 x ptr] [ptr @.str.7, ptr @.str.8, ptr @.str.9, ptr @.str.10, ptr @.str.11, ptr @.str.12, ptr @.str.13, ptr @.str.14, ptr @.str.15, ptr @.str.16, ptr @.str.17, ptr @.str.18], align 16
@.str.19 = private unnamed_addr constant [35 x i8] c"%s, %02d %s %4d %02d:%02d:%02d GMT\00", align 1

; Function Attrs: nounwind uwtable
define dso_local i32 @evutil_date_rfc1123(ptr noundef %date, i64 noundef %datelen, ptr noundef %tm) #0 {
entry:
  %date.addr = alloca ptr, align 8
  %datelen.addr = alloca i64, align 8
  %tm.addr = alloca ptr, align 8
  %t = alloca i64, align 8
  %sys = alloca %struct.tm, align 8
  store ptr %date, ptr %date.addr, align 8
  store i64 %datelen, ptr %datelen.addr, align 8
  store ptr %tm, ptr %tm.addr, align 8
  %call = call i64 @time(ptr noundef null) #5
  store i64 %call, ptr %t, align 8
  %0 = load ptr, ptr %tm.addr, align 8
  %cmp = icmp eq ptr %0, null
  br i1 %cmp, label %if.then, label %if.end

if.then:                                          ; preds = %entry
  %call1 = call ptr @gmtime_r(ptr noundef %t, ptr noundef %sys) #5
  store ptr %sys, ptr %tm.addr, align 8
  br label %if.end

if.end:                                           ; preds = %if.then, %entry
  %1 = load ptr, ptr %date.addr, align 8
  %2 = load i64, ptr %datelen.addr, align 8
  %3 = load ptr, ptr %tm.addr, align 8
  %tm_wday = getelementptr inbounds %struct.tm, ptr %3, i32 0, i32 6
  %4 = load i32, ptr %tm_wday, align 8
  %idxprom = sext i32 %4 to i64
  %arrayidx = getelementptr inbounds [7 x ptr], ptr @evutil_date_rfc1123.DAYS, i64 0, i64 %idxprom
  %5 = load ptr, ptr %arrayidx, align 8
  %6 = load ptr, ptr %tm.addr, align 8
  %tm_mday = getelementptr inbounds %struct.tm, ptr %6, i32 0, i32 3
  %7 = load i32, ptr %tm_mday, align 4
  %8 = load ptr, ptr %tm.addr, align 8
  %tm_mon = getelementptr inbounds %struct.tm, ptr %8, i32 0, i32 4
  %9 = load i32, ptr %tm_mon, align 8
  %idxprom2 = sext i32 %9 to i64
  %arrayidx3 = getelementptr inbounds [12 x ptr], ptr @evutil_date_rfc1123.MONTHS, i64 0, i64 %idxprom2
  %10 = load ptr, ptr %arrayidx3, align 8
  %11 = load ptr, ptr %tm.addr, align 8
  %tm_year = getelementptr inbounds %struct.tm, ptr %11, i32 0, i32 5
  %12 = load i32, ptr %tm_year, align 4
  %add = add nsw i32 1900, %12
  %13 = load ptr, ptr %tm.addr, align 8
  %tm_hour = getelementptr inbounds %struct.tm, ptr %13, i32 0, i32 2
  %14 = load i32, ptr %tm_hour, align 8
  %15 = load ptr, ptr %tm.addr, align 8
  %tm_min = getelementptr inbounds %struct.tm, ptr %15, i32 0, i32 1
  %16 = load i32, ptr %tm_min, align 4
  %17 = load ptr, ptr %tm.addr, align 8
  %tm_sec = getelementptr inbounds %struct.tm, ptr %17, i32 0, i32 0
  %18 = load i32, ptr %tm_sec, align 8
  %call4 = call i32 (ptr, i64, ptr, ...) @evutil_snprintf(ptr noundef %1, i64 noundef %2, ptr noundef @.str.19, ptr noundef %5, i32 noundef %7, ptr noundef %10, i32 noundef %add, i32 noundef %14, i32 noundef %16, i32 noundef %18)
  ret i32 %call4
}