; Function Attrs: nounwind uwtable
define dso_local i32 @evutil_date_rfc1123(ptr noundef %date, i64 noundef %datelen, ptr noundef readonly %tm) local_unnamed_addr #1 {
entry:
  %t = alloca i64, align 8
  %sys = alloca %struct.tm, align 8
  %call = tail call i64 @time(ptr noundef null) #8
  store i64 %call, ptr %t, align 8
  %cmp = icmp eq ptr %tm, null
  br i1 %cmp, label %if.then, label %if.end

if.then:                                          ; preds = %entry
  %call1 = call ptr @gmtime_r(ptr noundef nonnull %t, ptr noundef nonnull %sys) #8
  br label %if.end

if.end:                                           ; preds = %if.then, %entry
  %tm.addr.0.sroa.phi24 = phi ptr [ %sys, %if.then ], [ %tm, %entry ]
  %tm.addr.0.sroa.phi24.sroa.phi72 = getelementptr inbounds nuw i8, ptr %tm.addr.0.sroa.phi24, i64 4
  %tm.addr.0.sroa.phi24.sroa.phi69 = getelementptr inbounds nuw i8, ptr %tm.addr.0.sroa.phi24, i64 8
  %tm.addr.0.sroa.phi24.sroa.phi66 = getelementptr inbounds nuw i8, ptr %tm.addr.0.sroa.phi24, i64 20
  %tm.addr.0.sroa.phi24.sroa.phi = getelementptr inbounds nuw i8, ptr %tm.addr.0.sroa.phi24, i64 16
  %tm.addr.0.sroa.phi24.sroa.phi61 = getelementptr inbounds nuw i8, ptr %tm.addr.0.sroa.phi24, i64 12
  %tm.addr.0.sroa.phi24.sroa.phi59 = getelementptr inbounds nuw i8, ptr %tm.addr.0.sroa.phi24, i64 24
  %0 = load i32, ptr %tm.addr.0.sroa.phi24.sroa.phi59, align 8
  %idxprom = sext i32 %0 to i64
  %arrayidx = getelementptr inbounds [7 x ptr], ptr @evutil_date_rfc1123.DAYS, i64 0, i64 %idxprom
  %1 = load ptr, ptr %arrayidx, align 8
  %2 = load i32, ptr %tm.addr.0.sroa.phi24.sroa.phi61, align 4
  %3 = load i32, ptr %tm.addr.0.sroa.phi24.sroa.phi, align 8
  %idxprom2 = sext i32 %3 to i64
  %arrayidx3 = getelementptr inbounds [12 x ptr], ptr @evutil_date_rfc1123.MONTHS, i64 0, i64 %idxprom2
  %4 = load ptr, ptr %arrayidx3, align 8
  %5 = load i32, ptr %tm.addr.0.sroa.phi24.sroa.phi66, align 4
  %add = add nsw i32 %5, 1900
  %6 = load i32, ptr %tm.addr.0.sroa.phi24.sroa.phi69, align 8
  %7 = load i32, ptr %tm.addr.0.sroa.phi24.sroa.phi72, align 4
  %8 = load i32, ptr %tm.addr.0.sroa.phi24, align 8
  %call4 = call i32 (ptr, i64, ptr, ...) @evutil_snprintf(ptr noundef %date, i64 noundef %datelen, ptr noundef nonnull @.str.19, ptr noundef %1, i32 noundef %2, ptr noundef %4, i32 noundef %add, i32 noundef %6, i32 noundef %7, i32 noundef %8) #8
  ret i32 %call4
}